Certificate:
    Data:
        Version: 3 (0x2)
        Serial Number:
            81:b5:77:30:d8:a2:5d:52
    Signature Algorithm: sha1WithRSAEncryption
        Issuer: C=CN, ST=Guangdong Province, O=Shantou University, OU=Engineering College, CN=www.eng.stu.edu.cn
        Validity
            Not Before: Mar 28 09:26:53 2013 GMT
            Not After : Mar 27 09:26:53 2016 GMT
        Subject: C=CN, ST=Guangdong Province, O=Shantou University, OU=Engineering College, CN=www.eng.stu.edu.cn
        Subject Public Key Info:
            Public Key Algorithm: rsaEncryption
                Public-Key: (1024 bit)
                Modulus:
                    00:d4:96:c2:f2:fc:e7:06:a7:a4:71:52:dd:ab:58:
                    04:55:63:ee:ff:12:06:7c:02:b1:0e:45:e0:20:d0:
                    9b:f4:46:81:f4:38:b7:6b:41:42:30:29:d1:a1:e9:
                    21:6b:e7:9b:73:2a:bd:f4:67:d6:37:1a:0d:0f:33:
                    a5:c7:e2:13:c3:dd:0a:89:90:90:a2:6b:f4:2c:69:
                    64:2b:1c:80:dc:16:24:da:56:d1:94:ef:73:a2:0e:
                    10:c2:91:84:d3:22:1a:c4:e1:80:13:54:67:75:6f:
                    3b:dc:c6:2a:12:68:4e:1c:25:13:32:54:91:e8:a0:
                    40:3e:a7:0e:89:67:91:ce:89
                Exponent: 65537 (0x10001)
        X509v3 extensions:
            X509v3 Subject Key Identifier: 
                13:99:F8:34:AE:99:6F:3C:A4:B5:EE:5A:6F:02:C1:53:54:5F:99:70
            X509v3 Authority Key Identifier: 
                keyid:13:99:F8:34:AE:99:6F:3C:A4:B5:EE:5A:6F:02:C1:53:54:5F:99:70

            X509v3 Basic Constraints: 
                CA:TRUE
    Signature Algorithm: sha1WithRSAEncryption
         83:d2:fd:5b:89:1a:23:9f:73:81:a3:a7:65:d2:9b:d0:15:dd:
         20:44:aa:f1:88:4b:73:08:92:28:06:d8:d7:42:e0:84:1d:d7:
         65:11:0b:eb:61:43:0f:58:63:b7:79:a9:67:33:0a:a8:7d:0c:
         3e:94:1a:69:12:5a:59:27:bf:58:87:5a:21:99:fe:e1:6a:23:
         20:1d:3f:9e:b9:07:13:e7:f7:81:56:60:ab:83:78:83:1a:90:
         a3:3d:e0:6f:05:4f:32:d0:cb:2f:9a:64:e2:34:22:f0:db:d3:
         60:8a:39:d6:01:27:cf:1c:34:d4:a0:59:98:69:1f:3f:33:78:
         c9:0c
-----BEGIN CERTIFICATE-----
MIIC1DCCAj2gAwIBAgIJAIG1dzDYol1SMA0GCSqGSIb3DQEBBQUAMIGCMQswCQYD
VQQGEwJDTjEbMBkGA1UECAwSR3Vhbmdkb25nIFByb3ZpbmNlMRswGQYDVQQKDBJT
aGFudG91IFVuaXZlcnNpdHkxHDAaBgNVBAsME0VuZ2luZWVyaW5nIENvbGxlZ2Ux
GzAZBgNVBAMMEnd3dy5lbmcuc3R1LmVkdS5jbjAeFw0xMzAzMjgwOTI2NTNaFw0x
NjAzMjcwOTI2NTNaMIGCMQswCQYDVQQGEwJDTjEbMBkGA1UECAwSR3Vhbmdkb25n
IFByb3ZpbmNlMRswGQYDVQQKDBJTaGFudG91IFVuaXZlcnNpdHkxHDAaBgNVBAsM
E0VuZ2luZWVyaW5nIENvbGxlZ2UxGzAZBgNVBAMMEnd3dy5lbmcuc3R1LmVkdS5j
bjCBnzANBgkqhkiG9w0BAQEFAAOBjQAwgYkCgYEA1JbC8vznBqekcVLdq1gEVWPu
/xIGfAKxDkXgINCb9EaB9Di3a0FCMCnRoekha+ebcyq99GfWNxoNDzOlx+ITw90K
iZCQomv0LGlkKxyA3BYk2lbRlO9zog4QwpGE0yIaxOGAE1RndW873MYqEmhOHCUT
MlSR6KBAPqcOiWeRzokCAwEAAaNQME4wHQYDVR0OBBYEFBOZ+DSumW88pLXuWm8C
wVNUX5lwMB8GA1UdIwQYMBaAFBOZ+DSumW88pLXuWm8CwVNUX5lwMAwGA1UdEwQF
MAMBAf8wDQYJKoZIhvcNAQEFBQADgYEAg9L9W4kaI59zgaOnZdKb0BXdIESq8YhL
cwiSKAbY10LghB3XZREL62FDD1hjt3mpZzMKqH0MPpQaaRJaWSe/WIdaIZn+4Woj
IB0/nrkHE+f3gVZgq4N4gxqQoz3gbwVPMtDLL5pk4jQi8NvTYIo51gEnzxw01KBZ
mGkfPzN4yQw=
-----END CERTIFICATE-----
